; Function Attrs: mustprogress nofree norecurse nosync nounwind willreturn memory(argmem: readwrite) uwtable
define hidden void @_ZN10probe_infoC2ERK6symbolPKcP5probe(ptr noundef nonnull writeonly align 8 captures(none) dereferenceable(24) initializes((0, 24)) %0, ptr noundef nonnull readonly align 8 captures(none) dereferenceable(8) %1, ptr noundef %2, ptr noundef %3) unnamed_addr #3 align 2 {
  %5 = load i64, ptr %1, align 8, !tbaa !3
  store i64 %5, ptr %0, align 8, !tbaa !3
  %6 = getelementptr inbounds nuw i8, ptr %0, i64 8
  store ptr %2, ptr %6, align 8, !tbaa !8
  %7 = getelementptr inbounds nuw i8, ptr %0, i64 16
  store ptr %3, ptr %7, align 8, !tbaa !13
  %.not.i.i = icmp eq ptr %3, null
  br i1 %.not.i.i, label %_ZN3refI5probeEC2EPS0_.exit, label %8

8:                                                ; preds = %4
  %9 = getelementptr inbounds nuw i8, ptr %3, i64 8
  %10 = load i32, ptr %9, align 8, !tbaa !14
  %11 = add i32 %10, 1
  store i32 %11, ptr %9, align 8, !tbaa !14
  br label %_ZN3refI5probeEC2EPS0_.exit

_ZN3refI5probeEC2EPS0_.exit:                      ; preds = %4, %8
  ret void
}